; Function Attrs: mustprogress nounwind uwtable
define internal fastcc void @_ZN12_GLOBAL__N_124CommentASTToXMLConverter29appendToResultWithXMLEscapingEN4llvm9StringRefE(ptr noundef nonnull align 8 dereferenceable(80) %0, ptr readonly %1, i64 %2) unnamed_addr #1 align 2 {
  %4 = getelementptr inbounds i8, ptr %1, i64 %2
  %.not19 = icmp eq i64 %2, 0
  br i1 %.not19, label %._crit_edge, label %.lr.ph

.lr.ph:                                           ; preds = %3
  %5 = getelementptr inbounds i8, ptr %0, i64 32
  %6 = getelementptr inbounds i8, ptr %0, i64 40
  %7 = getelementptr inbounds nuw i8, ptr %0, i64 8
  br label %8

8:                                                ; preds = %.lr.ph, %_ZN4llvm11raw_ostreamlsEPKc.exit
  %.020 = phi ptr [ %1, %.lr.ph ], [ %77, %_ZN4llvm11raw_ostreamlsEPKc.exit ]
  %9 = load i8, ptr %.020, align 1
  switch i8 %9, label %70 [
    i8 38, label %10
    i8 60, label %22
    i8 62, label %34
    i8 34, label %46
    i8 39, label %58
  ]

10:                                               ; preds = %8
  %11 = load ptr, ptr %5, align 8
  %12 = load ptr, ptr %6, align 8
  %13 = ptrtoint ptr %11 to i64
  %14 = ptrtoint ptr %12 to i64
  %15 = sub i64 %13, %14
  %16 = icmp ult i64 %15, 5
  br i1 %16, label %17, label %19

17:                                               ; preds = %10
  %18 = tail call noundef nonnull align 8 dereferenceable(48) ptr @_ZN4llvm11raw_ostream5writeEPKcm(ptr noundef nonnull align 8 dereferenceable(48) %7, ptr noundef nonnull @.str, i64 noundef 5) #16
  br label %_ZN4llvm11raw_ostreamlsEPKc.exit

19:                                               ; preds = %10
  tail call void @llvm.memcpy.p0.p0.i64(ptr noundef nonnull align 1 dereferenceable(5) %12, ptr noundef nonnull align 1 dereferenceable(5) @.str, i64 5, i1 false)
  %20 = load ptr, ptr %6, align 8
  %21 = getelementptr inbounds i8, ptr %20, i64 5
  store ptr %21, ptr %6, align 8
  br label %_ZN4llvm11raw_ostreamlsEPKc.exit

22:                                               ; preds = %8
  %23 = load ptr, ptr %5, align 8
  %24 = load ptr, ptr %6, align 8
  %25 = ptrtoint ptr %23 to i64
  %26 = ptrtoint ptr %24 to i64
  %27 = sub i64 %25, %26
  %28 = icmp ult i64 %27, 4
  br i1 %28, label %29, label %31

29:                                               ; preds = %22
  %30 = tail call noundef nonnull align 8 dereferenceable(48) ptr @_ZN4llvm11raw_ostream5writeEPKcm(ptr noundef nonnull align 8 dereferenceable(48) %7, ptr noundef nonnull @.str.1, i64 noundef 4) #16
  br label %_ZN4llvm11raw_ostreamlsEPKc.exit

31:                                               ; preds = %22
  store i32 997485606, ptr %24, align 1
  %32 = load ptr, ptr %6, align 8
  %33 = getelementptr inbounds i8, ptr %32, i64 4
  store ptr %33, ptr %6, align 8
  br label %_ZN4llvm11raw_ostreamlsEPKc.exit

34:                                               ; preds = %8
  %35 = load ptr, ptr %5, align 8
  %36 = load ptr, ptr %6, align 8
  %37 = ptrtoint ptr %35 to i64
  %38 = ptrtoint ptr %36 to i64
  %39 = sub i64 %37, %38
  %40 = icmp ult i64 %39, 4
  br i1 %40, label %41, label %43

41:                                               ; preds = %34
  %42 = tail call noundef nonnull align 8 dereferenceable(48) ptr @_ZN4llvm11raw_ostream5writeEPKcm(ptr noundef nonnull align 8 dereferenceable(48) %7, ptr noundef nonnull @.str.2, i64 noundef 4) #16
  br label %_ZN4llvm11raw_ostreamlsEPKc.exit

43:                                               ; preds = %34
  store i32 997484326, ptr %36, align 1
  %44 = load ptr, ptr %6, align 8
  %45 = getelementptr inbounds i8, ptr %44, i64 4
  store ptr %45, ptr %6, align 8
  br label %_ZN4llvm11raw_ostreamlsEPKc.exit

46:                                               ; preds = %8
  %47 = load ptr, ptr %5, align 8
  %48 = load ptr, ptr %6, align 8
  %49 = ptrtoint ptr %47 to i64
  %50 = ptrtoint ptr %48 to i64
  %51 = sub i64 %49, %50
  %52 = icmp ult i64 %51, 6
  br i1 %52, label %53, label %55

53:                                               ; preds = %46
  %54 = tail call noundef nonnull align 8 dereferenceable(48) ptr @_ZN4llvm11raw_ostream5writeEPKcm(ptr noundef nonnull align 8 dereferenceable(48) %7, ptr noundef nonnull @.str.3, i64 noundef 6) #16
  br label %_ZN4llvm11raw_ostreamlsEPKc.exit

55:                                               ; preds = %46
  tail call void @llvm.memcpy.p0.p0.i64(ptr noundef nonnull align 1 dereferenceable(6) %48, ptr noundef nonnull align 1 dereferenceable(6) @.str.3, i64 6, i1 false)
  %56 = load ptr, ptr %6, align 8
  %57 = getelementptr inbounds i8, ptr %56, i64 6
  store ptr %57, ptr %6, align 8
  br label %_ZN4llvm11raw_ostreamlsEPKc.exit

58:                                               ; preds = %8
  %59 = load ptr, ptr %5, align 8
  %60 = load ptr, ptr %6, align 8
  %61 = ptrtoint ptr %59 to i64
  %62 = ptrtoint ptr %60 to i64
  %63 = sub i64 %61, %62
  %64 = icmp ult i64 %63, 6
  br i1 %64, label %65, label %67

65:                                               ; preds = %58
  %66 = tail call noundef nonnull align 8 dereferenceable(48) ptr @_ZN4llvm11raw_ostream5writeEPKcm(ptr noundef nonnull align 8 dereferenceable(48) %7, ptr noundef nonnull @.str.46, i64 noundef 6) #16
  br label %_ZN4llvm11raw_ostreamlsEPKc.exit

67:                                               ; preds = %58
  tail call void @llvm.memcpy.p0.p0.i64(ptr noundef nonnull align 1 dereferenceable(6) %60, ptr noundef nonnull align 1 dereferenceable(6) @.str.46, i64 6, i1 false)
  %68 = load ptr, ptr %6, align 8
  %69 = getelementptr inbounds i8, ptr %68, i64 6
  store ptr %69, ptr %6, align 8
  br label %_ZN4llvm11raw_ostreamlsEPKc.exit

70:                                               ; preds = %8
  %71 = load ptr, ptr %6, align 8
  %72 = load ptr, ptr %5, align 8
  %.not.i = icmp ult ptr %71, %72
  br i1 %.not.i, label %75, label %73

73:                                               ; preds = %70
  %74 = tail call noundef nonnull align 8 dereferenceable(48) ptr @_ZN4llvm11raw_ostream5writeEh(ptr noundef nonnull align 8 dereferenceable(48) %7, i8 noundef zeroext %9) #16
  br label %_ZN4llvm11raw_ostreamlsEPKc.exit

75:                                               ; preds = %70
  %76 = getelementptr inbounds i8, ptr %71, i64 1
  store ptr %76, ptr %6, align 8
  store i8 %9, ptr %71, align 1
  br label %_ZN4llvm11raw_ostreamlsEPKc.exit

_ZN4llvm11raw_ostreamlsEPKc.exit:                 ; preds = %75, %73, %67, %65, %55, %53, %43, %41, %31, %29, %19, %17
  %77 = getelementptr inbounds i8, ptr %.020, i64 1
  %.not = icmp eq ptr %77, %4
  br i1 %.not, label %._crit_edge, label %8, !llvm.loop !54

._crit_edge:                                      ; preds = %_ZN4llvm11raw_ostreamlsEPKc.exit, %3
  ret void
}